; Function Attrs: alwaysinline norecurse nounwind uwtable
define internal void @_ZNK4ncnn4BNLL15forward_inplaceERNS_3MatERKNS_6OptionE.omp_outlined(ptr noalias noundef readonly captures(none) %0, ptr noalias readnone captures(none) %1, ptr noundef nonnull readonly align 4 captures(none) dereferenceable(4) %2, ptr noundef nonnull readonly align 8 captures(none) dereferenceable(72) %3, ptr noundef nonnull readonly align 4 captures(none) dereferenceable(4) %4) #6 personality ptr @__gxx_personality_v0 {
  %6 = alloca i32, align 4
  %7 = alloca i32, align 4
  %8 = alloca i32, align 4
  %9 = alloca i32, align 4
  %10 = load i32, ptr %2, align 4, !tbaa !15
  %11 = icmp sgt i32 %10, 0
  br i1 %11, label %12, label %43

12:                                               ; preds = %5
  %13 = add nsw i32 %10, -1
  call void @llvm.lifetime.start.p0(i64 4, ptr nonnull %6) #7
  store i32 0, ptr %6, align 4, !tbaa !15
  call void @llvm.lifetime.start.p0(i64 4, ptr nonnull %7) #7
  store i32 %13, ptr %7, align 4, !tbaa !15
  call void @llvm.lifetime.start.p0(i64 4, ptr nonnull %8) #7
  store i32 1, ptr %8, align 4, !tbaa !15
  call void @llvm.lifetime.start.p0(i64 4, ptr nonnull %9) #7
  store i32 0, ptr %9, align 4, !tbaa !15
  %14 = load i32, ptr %0, align 4, !tbaa !15
  call void @__kmpc_for_static_init_4(ptr nonnull @1, i32 %14, i32 34, ptr nonnull %9, ptr nonnull %6, ptr nonnull %7, ptr nonnull %8, i32 1, i32 1)
  %15 = load i32, ptr %7, align 4, !tbaa !15
  %16 = call i32 @llvm.smin.i32(i32 %15, i32 %13)
  store i32 %16, ptr %7, align 4, !tbaa !15
  %17 = load i32, ptr %6, align 4, !tbaa !15
  %.not38 = icmp sgt i32 %17, %16
  br i1 %.not38, label %._crit_edge40, label %.noexc.lr.ph

.noexc.lr.ph:                                     ; preds = %12
  %18 = load ptr, ptr %3, align 8, !tbaa !36, !noalias !37
  %19 = getelementptr inbounds nuw i8, ptr %3, i64 64
  %20 = load i64, ptr %19, align 8, !tbaa !40, !noalias !37
  %21 = getelementptr inbounds nuw i8, ptr %3, i64 16
  %22 = load i64, ptr %21, align 8, !tbaa !41, !noalias !37
  %factor.op.mul = mul i64 %20, %22
  %23 = load i32, ptr %4, align 4, !tbaa !15
  %24 = icmp sgt i32 %23, 0
  br i1 %24, label %.noexc.us.preheader, label %._crit_edge40

.noexc.us.preheader:                              ; preds = %.noexc.lr.ph
  %25 = sext i32 %17 to i64
  %26 = add nsw i32 %16, 1
  %wide.trip.count = zext nneg i32 %23 to i64
  br label %.noexc.us

.noexc.us:                                        ; preds = %.noexc.us.preheader, %._crit_edge.us
  %indvars.iv43 = phi i64 [ %25, %.noexc.us.preheader ], [ %indvars.iv.next44, %._crit_edge.us ]
  %.reass.us = mul i64 %factor.op.mul, %indvars.iv43
  %27 = getelementptr inbounds nuw i8, ptr %18, i64 %.reass.us
  br label %28

28:                                               ; preds = %.noexc.us, %42
  %indvars.iv = phi i64 [ 0, %.noexc.us ], [ %indvars.iv.next, %42 ]
  %29 = getelementptr inbounds nuw float, ptr %27, i64 %indvars.iv
  %30 = load float, ptr %29, align 4, !tbaa !42
  %31 = fcmp fast ogt float %30, 0.000000e+00
  br i1 %31, label %36, label %32

32:                                               ; preds = %28
  %33 = call fast float @llvm.exp.f32(float %30)
  %34 = fadd fast float %33, 1.000000e+00
  %35 = call fast float @llvm.log.f32(float %34)
  br label %42

36:                                               ; preds = %28
  %37 = fneg fast float %30
  %38 = call fast float @llvm.exp.f32(float %37)
  %39 = fadd fast float %38, 1.000000e+00
  %40 = call fast float @llvm.log.f32(float %39)
  %41 = fadd fast float %40, %30
  br label %42

42:                                               ; preds = %36, %32
  %storemerge.us = phi float [ %35, %32 ], [ %41, %36 ]
  store float %storemerge.us, ptr %29, align 4, !tbaa !42
  %indvars.iv.next = add nuw nsw i64 %indvars.iv, 1
  %exitcond.not = icmp eq i64 %indvars.iv.next, %wide.trip.count
  br i1 %exitcond.not, label %._crit_edge.us, label %28, !llvm.loop !44

._crit_edge.us:                                   ; preds = %42
  %indvars.iv.next44 = add nsw i64 %indvars.iv43, 1
  %lftr.wideiv = trunc i64 %indvars.iv.next44 to i32
  %exitcond46.not = icmp eq i32 %26, %lftr.wideiv
  br i1 %exitcond46.not, label %._crit_edge40, label %.noexc.us

._crit_edge40:                                    ; preds = %._crit_edge.us, %.noexc.lr.ph, %12
  call void @__kmpc_for_static_fini(ptr nonnull @1, i32 %14)
  call void @llvm.lifetime.end.p0(i64 4, ptr nonnull %9) #7
  call void @llvm.lifetime.end.p0(i64 4, ptr nonnull %8) #7
  call void @llvm.lifetime.end.p0(i64 4, ptr nonnull %7) #7
  call void @llvm.lifetime.end.p0(i64 4, ptr nonnull %6) #7
  br label %43

43:                                               ; preds = %._crit_edge40, %5
  ret void
}